target datalayout = "e-m:e-p270:32:32-p271:32:32-p272:64:64-i64:64-i128:128-f80:128-n8:16:32:64-S128"
target triple = "x86_64-pc-linux-gnu"

@.str.5 = private unnamed_addr constant [2 x i8] c" \00", align 1

; Function Attrs: inlinehint nounwind uwtable
define internal ptr @Abc_UtilStrsav(ptr noundef %0) #3 {
  %2 = alloca ptr, align 8
  store ptr %0, ptr %2, align 8, !tbaa !47
  %3 = load ptr, ptr %2, align 8, !tbaa !47
  %4 = icmp ne ptr %3, null
  br i1 %4, label %5, label %13

5:                                                ; preds = %1
  %6 = load ptr, ptr %2, align 8, !tbaa !47
  %7 = call i64 @strlen(ptr noundef %6) #17
  %8 = add i64 %7, 1
  %9 = mul i64 1, %8
  %10 = call noalias ptr @malloc(i64 noundef %9) #16
  %11 = load ptr, ptr %2, align 8, !tbaa !47
  %12 = call ptr @strcpy(ptr noundef %10, ptr noundef %11) #14
  br label %14

13:                                               ; preds = %1
  br label %14

14:                                               ; preds = %13, %5
  %15 = phi ptr [ %12, %5 ], [ null, %13 ]
  ret ptr %15
}

; Function Attrs: nounwind uwtable
define ptr @Cmd_DeriveConvertIntoString(i32 noundef %0, ptr noundef %1) #0 {
  %3 = alloca i32, align 4
  %4 = alloca ptr, align 8
  %5 = alloca [1000 x i8], align 16
  %6 = alloca i32, align 4
  store i32 %0, ptr %3, align 4, !tbaa !19
  store ptr %1, ptr %4, align 8, !tbaa !45
  call void @llvm.lifetime.start.p0(i64 1000, ptr %5) #14
  call void @llvm.memset.p0.i64(ptr align 16 %5, i8 0, i64 1000, i1 false)
  call void @llvm.lifetime.start.p0(i64 4, ptr %6) #14
  store i32 0, ptr %6, align 4, !tbaa !19
  br label %7

7:                                                ; preds = %21, %2
  %8 = load i32, ptr %6, align 4, !tbaa !19
  %9 = load i32, ptr %3, align 4, !tbaa !19
  %10 = icmp slt i32 %8, %9
  br i1 %10, label %11, label %24

11:                                               ; preds = %7
  %12 = getelementptr inbounds [1000 x i8], ptr %5, i64 0, i64 0
  %13 = load ptr, ptr %4, align 8, !tbaa !45
  %14 = load i32, ptr %6, align 4, !tbaa !19
  %15 = sext i32 %14 to i64
  %16 = getelementptr inbounds ptr, ptr %13, i64 %15
  %17 = load ptr, ptr %16, align 8, !tbaa !47
  %18 = call ptr @strcat(ptr noundef %12, ptr noundef %17) #14
  %19 = getelementptr inbounds [1000 x i8], ptr %5, i64 0, i64 0
  %20 = call ptr @strcat(ptr noundef %19, ptr noundef @.str.5) #14
  br label %21

21:                                               ; preds = %11
  %22 = load i32, ptr %6, align 4, !tbaa !19
  %23 = add nsw i32 %22, 1
  store i32 %23, ptr %6, align 4, !tbaa !19
  br label %7, !llvm.loop !49

24:                                               ; preds = %7
  %25 = getelementptr inbounds [1000 x i8], ptr %5, i64 0, i64 0
  %26 = call ptr @Abc_UtilStrsav(ptr noundef %25)
  call void @llvm.lifetime.end.p0(i64 4, ptr %6) #14
  call void @llvm.lifetime.end.p0(i64 1000, ptr %5) #14
  ret ptr %26
}