; Function Attrs: nofree nounwind uwtable
define noundef ptr @Cmd_DeriveConvertIntoString(i32 noundef %0, ptr noundef readonly captures(none) %1) local_unnamed_addr #0 {
  %3 = alloca [1000 x i8], align 16
  call void @llvm.lifetime.start.p0(i64 1000, ptr nonnull %3) #22
  call void @llvm.memset.p0.i64(ptr noundef nonnull align 16 dereferenceable(1000) %3, i8 0, i64 1000, i1 false)
  %4 = icmp sgt i32 %0, 0
  br i1 %4, label %.lr.ph.preheader, label %._crit_edge

.lr.ph.preheader:                                 ; preds = %2
  %wide.trip.count = zext nneg i32 %0 to i64
  br label %.lr.ph

.lr.ph:                                           ; preds = %.lr.ph.preheader, %.lr.ph
  %indvars.iv = phi i64 [ 0, %.lr.ph.preheader ], [ %indvars.iv.next, %.lr.ph ]
  %5 = getelementptr inbounds nuw ptr, ptr %1, i64 %indvars.iv
  %6 = load ptr, ptr %5, align 8, !tbaa !37
  %7 = call ptr @strcat(ptr noundef nonnull dereferenceable(1) %3, ptr noundef nonnull dereferenceable(1) %6) #22
  %strlen = call i64 @strlen(ptr nonnull dereferenceable(1) %3)
  %endptr = getelementptr inbounds i8, ptr %3, i64 %strlen
  store i16 32, ptr %endptr, align 1
  %indvars.iv.next = add nuw nsw i64 %indvars.iv, 1
  %exitcond.not = icmp eq i64 %indvars.iv.next, %wide.trip.count
  br i1 %exitcond.not, label %._crit_edge, label %.lr.ph, !llvm.loop !39

._crit_edge:                                      ; preds = %.lr.ph, %2
  %8 = call i64 @strlen(ptr noundef nonnull readonly dereferenceable(1) %3) #25
  %9 = add i64 %8, 1
  %10 = call noalias noundef ptr @malloc(i64 noundef %9) #24
  %11 = call ptr @strcpy(ptr noundef nonnull dereferenceable(1) %10, ptr noundef nonnull readonly dereferenceable(1) %3) #22
  call void @llvm.lifetime.end.p0(i64 1000, ptr nonnull %3) #22
  ret ptr %10
}